; Function Attrs: mustprogress uwtable
define void @_ZN13DecodeAsModelC2EP7QObjectP13_capture_file(ptr noundef nonnull align 8 dereferenceable(96) %0, ptr noundef %1, ptr noundef %2) unnamed_addr #0 align 2 {
  tail call void @_ZN19QAbstractTableModelC2EP7QObject(ptr noundef nonnull align 8 dereferenceable(16) %0, ptr noundef %1)
  store ptr getelementptr inbounds ({ [51 x ptr] }, ptr @_ZTV13DecodeAsModel, i64 0, i32 0, i64 2), ptr %0, align 8
  %4 = getelementptr inbounds i8, ptr %0, i64 16
  store ptr %2, ptr %4, align 8
  %5 = getelementptr inbounds i8, ptr %0, i64 24
  tail call void @llvm.memset.p0.i64(ptr noundef nonnull align 8 dereferenceable(72) %5, i8 0, i64 72, i1 false)
  ret void
}